#include <math.h>
#include <stdio.h>
#include <stdlib.h>
#include <string.h>
#define LEN 100
#define ASCII 100
#define MAX_N 100
#define MAX_M 100
#define MAX 100
#define ASC 100
#define null 0
#define Len 100
#define SUM 100
#define NUMBER 100
#define SIZE 100
#define Y 100
#define MAXN 100
#define MAXSIZE 100
#define maxrow 100
#define maxcol 100
#define mx 100
#define NUM 100
#define ROW 100
#define COL 100
#define SIZEE 100
#define MAX_LEN 100
#define LIU 100
#define maxsize 100
#define NUM 100
#define NO 100
#define Null 0
#define ID_DIGITS 100
#define INT_MAX 100
#define INT_MIN 100
#define FALSE 0
#define TRUE 1
#define hang 100
#define lie 100
#define len 100
#define max_p 100
#define lll 100
struct stu
{
	char num[20],name[20],add[30],sex;
	int age;
	float score;
	struct stu *next;
}
main()
{
	struct stu *p1,*p2;
	p1=(struct stu*)malloc(len);
	p1->next=NULL;
	while(1)
	{
		scanf("%s",p1->num);
		if(!strcmp(p1->num,"end")) break;
		scanf("%s %c %d %f %s",p1->name,&p1->sex,&p1->age,&p1->score,p1->add);
		p2=(struct stu*)malloc(len);
		p2->next=p1;
		p1=p2;
	}
	p1=p1->next;
	while(p1)
	{
		printf("%s %s %c %d %g %s\n",p1->num,p1->name,p1->sex,p1->age,p1->score,p1->add);
		p1=p1->next;
	}

	
}