; ModuleID = '31/1935.c'
source_filename = "31/1935.c"
target datalayout = "e-m:e-p270:32:32-p271:32:32-p272:64:64-i64:64-f80:128-n8:16:32:64-S128"
target triple = "x86_64-pc-linux-gnu"

%struct.stu = type { [20 x i8], [20 x i8], [30 x i8], i8, i32, float, %struct.stu* }

@.str = private unnamed_addr constant [3 x i8] c"%s\00", align 1
@.str.1 = private unnamed_addr constant [4 x i8] c"end\00", align 1
@.str.2 = private unnamed_addr constant [15 x i8] c"%s %c %d %f %s\00", align 1
@.str.3 = private unnamed_addr constant [19 x i8] c"%s %s %c %d %g %s\0A\00", align 1

; Function Attrs: noinline nounwind uwtable
define dso_local void @main(%struct.stu* noalias sret %0) #0 {
  %2 = alloca %struct.stu*, align 8
  %3 = alloca %struct.stu*, align 8
  %4 = call noalias i8* @malloc(i64 100) #4
  %5 = bitcast i8* %4 to %struct.stu*
  store %struct.stu* %5, %struct.stu** %2, align 8
  %6 = load %struct.stu*, %struct.stu** %2, align 8
  %7 = getelementptr inbounds %struct.stu, %struct.stu* %6, i32 0, i32 6
  store %struct.stu* null, %struct.stu** %7, align 8
  br label %8

8:                                                ; preds = %1, %19
  %9 = load %struct.stu*, %struct.stu** %2, align 8
  %10 = getelementptr inbounds %struct.stu, %struct.stu* %9, i32 0, i32 0
  %11 = getelementptr inbounds [20 x i8], [20 x i8]* %10, i64 0, i64 0
  %12 = call i32 (i8*, ...) @__isoc99_scanf(i8* getelementptr inbounds ([3 x i8], [3 x i8]* @.str, i64 0, i64 0), i8* %11)
  %13 = load %struct.stu*, %struct.stu** %2, align 8
  %14 = getelementptr inbounds %struct.stu, %struct.stu* %13, i32 0, i32 0
  %15 = getelementptr inbounds [20 x i8], [20 x i8]* %14, i64 0, i64 0
  %16 = call i32 @strcmp(i8* %15, i8* getelementptr inbounds ([4 x i8], [4 x i8]* @.str.1, i64 0, i64 0)) #5
  %17 = icmp ne i32 %16, 0
  br i1 %17, label %19, label %18

18:                                               ; preds = %8
  br label %39

19:                                               ; preds = %8
  %20 = load %struct.stu*, %struct.stu** %2, align 8
  %21 = getelementptr inbounds %struct.stu, %struct.stu* %20, i32 0, i32 1
  %22 = getelementptr inbounds [20 x i8], [20 x i8]* %21, i64 0, i64 0
  %23 = load %struct.stu*, %struct.stu** %2, align 8
  %24 = getelementptr inbounds %struct.stu, %struct.stu* %23, i32 0, i32 3
  %25 = load %struct.stu*, %struct.stu** %2, align 8
  %26 = getelementptr inbounds %struct.stu, %struct.stu* %25, i32 0, i32 4
  %27 = load %struct.stu*, %struct.stu** %2, align 8
  %28 = getelementptr inbounds %struct.stu, %struct.stu* %27, i32 0, i32 5
  %29 = load %struct.stu*, %struct.stu** %2, align 8
  %30 = getelementptr inbounds %struct.stu, %struct.stu* %29, i32 0, i32 2
  %31 = getelementptr inbounds [30 x i8], [30 x i8]* %30, i64 0, i64 0
  %32 = call i32 (i8*, ...) @__isoc99_scanf(i8* getelementptr inbounds ([15 x i8], [15 x i8]* @.str.2, i64 0, i64 0), i8* %22, i8* %24, i32* %26, float* %28, i8* %31)
  %33 = call noalias i8* @malloc(i64 100) #4
  %34 = bitcast i8* %33 to %struct.stu*
  store %struct.stu* %34, %struct.stu** %3, align 8
  %35 = load %struct.stu*, %struct.stu** %2, align 8
  %36 = load %struct.stu*, %struct.stu** %3, align 8
  %37 = getelementptr inbounds %struct.stu, %struct.stu* %36, i32 0, i32 6
  store %struct.stu* %35, %struct.stu** %37, align 8
  %38 = load %struct.stu*, %struct.stu** %3, align 8
  store %struct.stu* %38, %struct.stu** %2, align 8
  br label %8

39:                                               ; preds = %18
  %40 = load %struct.stu*, %struct.stu** %2, align 8
  %41 = getelementptr inbounds %struct.stu, %struct.stu* %40, i32 0, i32 6
  %42 = load %struct.stu*, %struct.stu** %41, align 8
  store %struct.stu* %42, %struct.stu** %2, align 8
  br label %43

43:                                               ; preds = %46, %39
  %44 = load %struct.stu*, %struct.stu** %2, align 8
  %45 = icmp ne %struct.stu* %44, null
  br i1 %45, label %46, label %71

46:                                               ; preds = %43
  %47 = load %struct.stu*, %struct.stu** %2, align 8
  %48 = getelementptr inbounds %struct.stu, %struct.stu* %47, i32 0, i32 0
  %49 = getelementptr inbounds [20 x i8], [20 x i8]* %48, i64 0, i64 0
  %50 = load %struct.stu*, %struct.stu** %2, align 8
  %51 = getelementptr inbounds %struct.stu, %struct.stu* %50, i32 0, i32 1
  %52 = getelementptr inbounds [20 x i8], [20 x i8]* %51, i64 0, i64 0
  %53 = load %struct.stu*, %struct.stu** %2, align 8
  %54 = getelementptr inbounds %struct.stu, %struct.stu* %53, i32 0, i32 3
  %55 = load i8, i8* %54, align 2
  %56 = sext i8 %55 to i32
  %57 = load %struct.stu*, %struct.stu** %2, align 8
  %58 = getelementptr inbounds %struct.stu, %struct.stu* %57, i32 0, i32 4
  %59 = load i32, i32* %58, align 8
  %60 = load %struct.stu*, %struct.stu** %2, align 8
  %61 = getelementptr inbounds %struct.stu, %struct.stu* %60, i32 0, i32 5
  %62 = load float, float* %61, align 4
  %63 = fpext float %62 to double
  %64 = load %struct.stu*, %struct.stu** %2, align 8
  %65 = getelementptr inbounds %struct.stu, %struct.stu* %64, i32 0, i32 2
  %66 = getelementptr inbounds [30 x i8], [30 x i8]* %65, i64 0, i64 0
  %67 = call i32 (i8*, ...) @printf(i8* getelementptr inbounds ([19 x i8], [19 x i8]* @.str.3, i64 0, i64 0), i8* %49, i8* %52, i32 %56, i32 %59, double %63, i8* %66)
  %68 = load %struct.stu*, %struct.stu** %2, align 8
  %69 = getelementptr inbounds %struct.stu, %struct.stu* %68, i32 0, i32 6
  %70 = load %struct.stu*, %struct.stu** %69, align 8
  store %struct.stu* %70, %struct.stu** %2, align 8
  br label %43

71:                                               ; preds = %43
  ret void
}

; Function Attrs: nounwind
declare dso_local noalias i8* @malloc(i64) #1

declare dso_local i32 @__isoc99_scanf(i8*, ...) #2

; Function Attrs: nounwind readonly
declare dso_local i32 @strcmp(i8*, i8*) #3

declare dso_local i32 @printf(i8*, ...) #2


!llvm.module.flags = !{!0}
!llvm.ident = !{!1}

!0 = !{i32 1, !"wchar_size", i32 4}
!1 = !{!"clang version 10.0.0-4ubuntu1 "}
